#include <math.h>
#include <stdio.h>
#include <stdlib.h>
#include <string.h>

void main()
{
	char a[1001];
	gets(a);
	int l=strlen(a);
	int index=1,num[301]={0};
	int i,n=0;
	for(i=0;i<l;i++)
	{
		if(a[i]==' '&&index==0)
		{
			index=1;
			n++;
		}
		else if(a[i]!=' '&&index==1)
		{
			num[n]++;
			index=0;
		}
		else if(a[i]!=' '&&index==0)
			num[n]++;
		else index=index;
	}
	if(n==0)
		printf("%d",num[0]);
	else{
	for(i=0;i<n;i++)
		printf("%d,",num[i]);
	printf("%d",num[n]);
}
}
